; Function Attrs: nounwind uwtable
define internal range(i32 -21, 903) i32 @cvNlsLSolve(ptr noundef %0, ptr noundef %1) #0 {
  %3 = icmp eq ptr %1, null
  br i1 %3, label %4, label %5

4:                                                ; preds = %2
  tail call void (ptr, i32, i32, ptr, ptr, ptr, ...) @cvProcessError(ptr noundef null, i32 noundef -21, i32 noundef 296, ptr noundef nonnull @__func__.cvNlsLSolve, ptr noundef nonnull @.str, ptr noundef nonnull @.str.1) #3
  br label %17

5:                                                ; preds = %2
  %6 = getelementptr inbounds nuw i8, ptr %1, i64 1024
  %7 = load ptr, ptr %6, align 8, !tbaa !44
  %8 = getelementptr inbounds nuw i8, ptr %1, i64 200
  %9 = load ptr, ptr %8, align 8, !tbaa !55
  %10 = getelementptr inbounds nuw i8, ptr %1, i64 208
  %11 = load ptr, ptr %10, align 8, !tbaa !29
  %12 = getelementptr inbounds nuw i8, ptr %1, i64 232
  %13 = load ptr, ptr %12, align 8, !tbaa !31
  %14 = tail call i32 %7(ptr noundef nonnull %1, ptr noundef %0, ptr noundef %9, ptr noundef %11, ptr noundef %13) #3
  %15 = icmp slt i32 %14, 0
  br i1 %15, label %17, label %16

16:                                               ; preds = %5
  %.not = icmp eq i32 %14, 0
  %. = select i1 %.not, i32 0, i32 902
  br label %17

17:                                               ; preds = %16, %5, %4
  %.0 = phi i32 [ -21, %4 ], [ -7, %5 ], [ %., %16 ]
  ret i32 %.0
}